; Function Attrs: mustprogress uwtable
define hidden void @_ZN17opencv_tensorflow12NameAttrList5ClearEv(ptr noundef nonnull align 8 dereferenceable(152) %0) unnamed_addr #3 align 2 personality ptr @__gxx_personality_v0 {
  %2 = getelementptr inbounds nuw i8, ptr %0, i64 16
  %3 = getelementptr inbounds nuw i8, ptr %0, i64 32
  %4 = load ptr, ptr %3, align 8, !tbaa !142
  %.not.i = icmp eq ptr %4, null
  br i1 %.not.i, label %_ZN6google8protobuf8internal8MapFieldIN17opencv_tensorflow31NameAttrList_AttrEntry_DoNotUseENSt7__cxx1112basic_stringIcSt11char_traitsIcESaIcEEENS3_9AttrValueELNS1_14WireFormatLite9FieldTypeE9ELSD_11EE5ClearEv.exit, label %5

5:                                                ; preds = %1
  %6 = getelementptr inbounds nuw i8, ptr %4, i64 8
  %7 = load i32, ptr %6, align 8, !tbaa !3
  %8 = icmp sgt i32 %7, 0
  br i1 %8, label %9, label %_ZN6google8protobuf8internal8MapFieldIN17opencv_tensorflow31NameAttrList_AttrEntry_DoNotUseENSt7__cxx1112basic_stringIcSt11char_traitsIcESaIcEEENS3_9AttrValueELNS1_14WireFormatLite9FieldTypeE9ELSD_11EE5ClearEv.exit

9:                                                ; preds = %5
  %10 = getelementptr inbounds nuw i8, ptr %4, i64 16
  %11 = load ptr, ptr %10, align 8, !tbaa !11
  %12 = getelementptr inbounds nuw i8, ptr %11, i64 8
  %wide.trip.count.i.i.i = zext nneg i32 %7 to i64
  br label %13

13:                                               ; preds = %13, %9
  %indvars.iv.i.i.i = phi i64 [ %indvars.iv.next.i.i.i, %13 ], [ 0, %9 ]
  %indvars.iv.next.i.i.i = add nuw nsw i64 %indvars.iv.i.i.i, 1
  %14 = getelementptr inbounds nuw ptr, ptr %12, i64 %indvars.iv.i.i.i
  %15 = load ptr, ptr %14, align 8, !tbaa !12
  %16 = load ptr, ptr %15, align 8, !tbaa !19
  %17 = getelementptr inbounds nuw i8, ptr %16, i64 32
  %18 = load ptr, ptr %17, align 8
  tail call void %18(ptr noundef nonnull align 8 dereferenceable(36) %15)
  %exitcond.not.i.i.i = icmp eq i64 %indvars.iv.next.i.i.i, %wide.trip.count.i.i.i
  br i1 %exitcond.not.i.i.i, label %19, label %13, !llvm.loop !143

19:                                               ; preds = %13
  store i32 0, ptr %6, align 8, !tbaa !3
  br label %_ZN6google8protobuf8internal8MapFieldIN17opencv_tensorflow31NameAttrList_AttrEntry_DoNotUseENSt7__cxx1112basic_stringIcSt11char_traitsIcESaIcEEENS3_9AttrValueELNS1_14WireFormatLite9FieldTypeE9ELSD_11EE5ClearEv.exit

_ZN6google8protobuf8internal8MapFieldIN17opencv_tensorflow31NameAttrList_AttrEntry_DoNotUseENSt7__cxx1112basic_stringIcSt11char_traitsIcESaIcEEENS3_9AttrValueELNS1_14WireFormatLite9FieldTypeE9ELSD_11EE5ClearEv.exit: ; preds = %1, %5, %19
  %20 = getelementptr inbounds nuw i8, ptr %0, i64 88
  tail call void @_ZN6google8protobuf3MapINSt7__cxx1112basic_stringIcSt11char_traitsIcESaIcEEEN17opencv_tensorflow9AttrValueEE8InnerMap5clearEv(ptr noundef nonnull align 8 dereferenceable(48) %20)
  tail call void @_ZN6google8protobuf8internal12MapFieldBase11SetMapDirtyEv(ptr noundef nonnull align 8 dereferenceable(120) %2)
  %21 = getelementptr inbounds nuw i8, ptr %0, i64 136
  tail call void @_ZN6google8protobuf8internal14ArenaStringPtr12ClearToEmptyEv(ptr noundef nonnull align 8 dereferenceable(8) %21)
  %22 = getelementptr inbounds nuw i8, ptr %0, i64 8
  %23 = load i64, ptr %22, align 8, !tbaa !16
  %24 = and i64 %23, 1
  %.not = icmp eq i64 %24, 0
  br i1 %.not, label %_ZN6google8protobuf8internal16InternalMetadata5ClearINS0_15UnknownFieldSetEEEvv.exit, label %25

25:                                               ; preds = %_ZN6google8protobuf8internal8MapFieldIN17opencv_tensorflow31NameAttrList_AttrEntry_DoNotUseENSt7__cxx1112basic_stringIcSt11char_traitsIcESaIcEEENS3_9AttrValueELNS1_14WireFormatLite9FieldTypeE9ELSD_11EE5ClearEv.exit
  tail call void @_ZN6google8protobuf8internal16InternalMetadata7DoClearINS0_15UnknownFieldSetEEEvv(ptr noundef nonnull align 8 dereferenceable(8) %22)
  br label %_ZN6google8protobuf8internal16InternalMetadata5ClearINS0_15UnknownFieldSetEEEvv.exit

_ZN6google8protobuf8internal16InternalMetadata5ClearINS0_15UnknownFieldSetEEEvv.exit: ; preds = %_ZN6google8protobuf8internal8MapFieldIN17opencv_tensorflow31NameAttrList_AttrEntry_DoNotUseENSt7__cxx1112basic_stringIcSt11char_traitsIcESaIcEEENS3_9AttrValueELNS1_14WireFormatLite9FieldTypeE9ELSD_11EE5ClearEv.exit, %25
  ret void
}